target datalayout = "e-m:e-p270:32:32-p271:32:32-p272:64:64-i64:64-i128:128-f80:128-n8:16:32:64-S128"
target triple = "x86_64-pc-linux-gnu"

%"class.cv::optflow::OpticalFlowSimpleFlow" = type { %"class.cv::DenseOpticalFlow", i32, i32, i32, double, double, i32, double, double, double, i32, double, double, double }
%"class.cv::DenseOpticalFlow" = type { %"class.cv::Algorithm" }
%"class.cv::Algorithm" = type { ptr }

; Function Attrs: mustprogress uwtable
define hidden void @_ZN2cv7optflow21OpticalFlowSimpleFlow4calcERKNS_11_InputArrayES4_RKNS_17_InputOutputArrayE(ptr noundef nonnull align 8 dereferenceable(104) %0, ptr noundef nonnull align 8 dereferenceable(24) %1, ptr noundef nonnull align 8 dereferenceable(24) %2, ptr noundef nonnull align 8 dereferenceable(24) %3) unnamed_addr #0 align 2 {
  %5 = alloca ptr, align 8
  %6 = alloca ptr, align 8
  %7 = alloca ptr, align 8
  %8 = alloca ptr, align 8
  store ptr %0, ptr %5, align 8, !tbaa !3
  store ptr %1, ptr %6, align 8, !tbaa !30
  store ptr %2, ptr %7, align 8, !tbaa !30
  store ptr %3, ptr %8, align 8, !tbaa !32
  %9 = load ptr, ptr %5, align 8
  %10 = load ptr, ptr %6, align 8, !tbaa !30
  %11 = load ptr, ptr %7, align 8, !tbaa !30
  %12 = load ptr, ptr %8, align 8, !tbaa !32
  %13 = getelementptr inbounds nuw %"class.cv::optflow::OpticalFlowSimpleFlow", ptr %9, i32 0, i32 1
  %14 = load i32, ptr %13, align 8, !tbaa !10
  %15 = getelementptr inbounds nuw %"class.cv::optflow::OpticalFlowSimpleFlow", ptr %9, i32 0, i32 2
  %16 = load i32, ptr %15, align 4, !tbaa !16
  %17 = getelementptr inbounds nuw %"class.cv::optflow::OpticalFlowSimpleFlow", ptr %9, i32 0, i32 3
  %18 = load i32, ptr %17, align 8, !tbaa !17
  %19 = getelementptr inbounds nuw %"class.cv::optflow::OpticalFlowSimpleFlow", ptr %9, i32 0, i32 4
  %20 = load double, ptr %19, align 8, !tbaa !18
  %21 = getelementptr inbounds nuw %"class.cv::optflow::OpticalFlowSimpleFlow", ptr %9, i32 0, i32 5
  %22 = load double, ptr %21, align 8, !tbaa !19
  %23 = getelementptr inbounds nuw %"class.cv::optflow::OpticalFlowSimpleFlow", ptr %9, i32 0, i32 6
  %24 = load i32, ptr %23, align 8, !tbaa !20
  %25 = getelementptr inbounds nuw %"class.cv::optflow::OpticalFlowSimpleFlow", ptr %9, i32 0, i32 7
  %26 = load double, ptr %25, align 8, !tbaa !21
  %27 = getelementptr inbounds nuw %"class.cv::optflow::OpticalFlowSimpleFlow", ptr %9, i32 0, i32 8
  %28 = load double, ptr %27, align 8, !tbaa !22
  %29 = getelementptr inbounds nuw %"class.cv::optflow::OpticalFlowSimpleFlow", ptr %9, i32 0, i32 9
  %30 = load double, ptr %29, align 8, !tbaa !23
  %31 = getelementptr inbounds nuw %"class.cv::optflow::OpticalFlowSimpleFlow", ptr %9, i32 0, i32 10
  %32 = load i32, ptr %31, align 8, !tbaa !24
  %33 = getelementptr inbounds nuw %"class.cv::optflow::OpticalFlowSimpleFlow", ptr %9, i32 0, i32 11
  %34 = load double, ptr %33, align 8, !tbaa !25
  %35 = getelementptr inbounds nuw %"class.cv::optflow::OpticalFlowSimpleFlow", ptr %9, i32 0, i32 12
  %36 = load double, ptr %35, align 8, !tbaa !26
  %37 = getelementptr inbounds nuw %"class.cv::optflow::OpticalFlowSimpleFlow", ptr %9, i32 0, i32 13
  %38 = load double, ptr %37, align 8, !tbaa !27
  call void @_ZN2cv7optflow17calcOpticalFlowSFERKNS_11_InputArrayES3_RKNS_12_OutputArrayEiiiddidddiddd(ptr noundef nonnull align 8 dereferenceable(24) %10, ptr noundef nonnull align 8 dereferenceable(24) %11, ptr noundef nonnull align 8 dereferenceable(24) %12, i32 noundef %14, i32 noundef %16, i32 noundef %18, double noundef %20, double noundef %22, i32 noundef %24, double noundef %26, double noundef %28, double noundef %30, i32 noundef %32, double noundef %34, double noundef %36, double noundef %38)
  ret void
}