; Function Attrs: mustprogress uwtable
define hidden void @_ZN2cv7optflow21OpticalFlowSimpleFlow4calcERKNS_11_InputArrayES4_RKNS_17_InputOutputArrayE(ptr noundef nonnull readonly align 8 captures(none) dereferenceable(104) %0, ptr noundef nonnull align 8 dereferenceable(24) %1, ptr noundef nonnull align 8 dereferenceable(24) %2, ptr noundef nonnull align 8 dereferenceable(24) %3) unnamed_addr #0 align 2 {
  %5 = getelementptr inbounds nuw i8, ptr %0, i64 8
  %6 = load i32, ptr %5, align 8, !tbaa !6
  %7 = getelementptr inbounds nuw i8, ptr %0, i64 12
  %8 = load i32, ptr %7, align 4, !tbaa !13
  %9 = getelementptr inbounds nuw i8, ptr %0, i64 16
  %10 = load i32, ptr %9, align 8, !tbaa !14
  %11 = getelementptr inbounds nuw i8, ptr %0, i64 24
  %12 = load double, ptr %11, align 8, !tbaa !15
  %13 = getelementptr inbounds nuw i8, ptr %0, i64 32
  %14 = load double, ptr %13, align 8, !tbaa !16
  %15 = getelementptr inbounds nuw i8, ptr %0, i64 40
  %16 = load i32, ptr %15, align 8, !tbaa !17
  %17 = getelementptr inbounds nuw i8, ptr %0, i64 48
  %18 = load double, ptr %17, align 8, !tbaa !18
  %19 = getelementptr inbounds nuw i8, ptr %0, i64 56
  %20 = load double, ptr %19, align 8, !tbaa !19
  %21 = getelementptr inbounds nuw i8, ptr %0, i64 64
  %22 = load double, ptr %21, align 8, !tbaa !20
  %23 = getelementptr inbounds nuw i8, ptr %0, i64 72
  %24 = load i32, ptr %23, align 8, !tbaa !21
  %25 = getelementptr inbounds nuw i8, ptr %0, i64 80
  %26 = load double, ptr %25, align 8, !tbaa !22
  %27 = getelementptr inbounds nuw i8, ptr %0, i64 88
  %28 = load double, ptr %27, align 8, !tbaa !23
  %29 = getelementptr inbounds nuw i8, ptr %0, i64 96
  %30 = load double, ptr %29, align 8, !tbaa !24
  tail call void @_ZN2cv7optflow17calcOpticalFlowSFERKNS_11_InputArrayES3_RKNS_12_OutputArrayEiiiddidddiddd(ptr noundef nonnull align 8 dereferenceable(24) %1, ptr noundef nonnull align 8 dereferenceable(24) %2, ptr noundef nonnull align 8 dereferenceable(24) %3, i32 noundef %6, i32 noundef %8, i32 noundef %10, double noundef %12, double noundef %14, i32 noundef %16, double noundef %18, double noundef %20, double noundef %22, i32 noundef %24, double noundef %26, double noundef %28, double noundef %30)
  ret void
}